target datalayout = "e-m:e-p270:32:32-p271:32:32-p272:64:64-i64:64-i128:128-f80:128-n8:16:32:64-S128"
target triple = "x86_64-pc-linux-gnu"

%struct.Gia_Sim2_t_ = type { ptr, ptr, i32, ptr, ptr, ptr }
%struct.Vec_Int_t_ = type { i32, i32, ptr }
%struct.Gia_ParSim_t_ = type { i32, i32, i32, i32, i32, i32, i32 }
%struct.Gia_Man_t_ = type { ptr, ptr, i32, i32, i32, i32, ptr, ptr, i32, i32, i32, ptr, ptr, %struct.Vec_Int_t_, %struct.Vec_Int_t_, i32, i32, i32, %struct.Vec_Int_t_, ptr, ptr, ptr, i32, i32, i32, i32, ptr, ptr, ptr, ptr, ptr, i32, i32, ptr, i32, ptr, ptr, ptr, ptr, ptr, ptr, ptr, ptr, ptr, ptr, ptr, ptr, ptr, ptr, ptr, ptr, ptr, ptr, %struct.Vec_Int_t_, %struct.Vec_Int_t_, ptr, ptr, ptr, ptr, ptr, ptr, ptr, ptr, ptr, ptr, ptr, ptr, ptr, ptr, ptr, ptr, ptr, ptr, ptr, ptr, ptr, i32, float, float, ptr, ptr, i32, ptr, ptr, ptr, ptr, ptr, ptr, ptr, ptr, ptr, ptr, ptr, ptr, ptr, ptr, ptr, i64, i64, ptr, ptr, i32, i32, i32, i32, i32, i32, i32, i32, i32, i32, i32, i32, ptr, ptr, ptr, ptr, ptr, ptr, ptr, ptr, i32, i32, i32, ptr, i32, i32, ptr, ptr, ptr, ptr, ptr, ptr, i32, i32, ptr, %struct.Vec_Int_t_, %struct.Vec_Int_t_, %struct.Vec_Int_t_, ptr, ptr, ptr, i32, i32, i32, i32, ptr, ptr, ptr, ptr, ptr }
%struct.Gia_Obj_t_ = type <{ i64, i32 }>

@.str = private unnamed_addr constant [59 x i8] c"Simulator could not allocate %.2f GB for simulation info.\0A\00", align 1
@.str.1 = private unnamed_addr constant [46 x i8] c"Memory: AIG = %7.2f MB.  SimInfo = %7.2f MB.\0A\00", align 1

; Function Attrs: inlinehint nounwind uwtable
define internal ptr @Gia_ManObj(ptr noundef %0, i32 noundef %1) #1 {
  %3 = alloca ptr, align 8
  %4 = alloca i32, align 4
  store ptr %0, ptr %3, align 8, !tbaa !20
  store i32 %1, ptr %4, align 4, !tbaa !30
  %5 = load ptr, ptr %3, align 8, !tbaa !20
  %6 = getelementptr inbounds nuw %struct.Gia_Man_t_, ptr %5, i32 0, i32 6
  %7 = load ptr, ptr %6, align 8, !tbaa !58
  %8 = load i32, ptr %4, align 4, !tbaa !30
  %9 = sext i32 %8 to i64
  %10 = getelementptr inbounds %struct.Gia_Obj_t_, ptr %7, i64 %9
  ret ptr %10
}

; Function Attrs: inlinehint nounwind uwtable
define internal ptr @Vec_IntAlloc(i32 noundef %0) #1 {
  %2 = alloca i32, align 4
  %3 = alloca ptr, align 8
  store i32 %0, ptr %2, align 4, !tbaa !30
  call void @llvm.lifetime.start.p0(i64 8, ptr %3) #11
  %4 = call noalias ptr @malloc(i64 noundef 16) #13
  store ptr %4, ptr %3, align 8, !tbaa !17
  %5 = load i32, ptr %2, align 4, !tbaa !30
  %6 = icmp sgt i32 %5, 0
  br i1 %6, label %7, label %11

7:                                                ; preds = %1
  %8 = load i32, ptr %2, align 4, !tbaa !30
  %9 = icmp slt i32 %8, 16
  br i1 %9, label %10, label %11

10:                                               ; preds = %7
  store i32 16, ptr %2, align 4, !tbaa !30
  br label %11

11:                                               ; preds = %10, %7, %1
  %12 = load ptr, ptr %3, align 8, !tbaa !17
  %13 = getelementptr inbounds nuw %struct.Vec_Int_t_, ptr %12, i32 0, i32 1
  store i32 0, ptr %13, align 4, !tbaa !56
  %14 = load i32, ptr %2, align 4, !tbaa !30
  %15 = load ptr, ptr %3, align 8, !tbaa !17
  %16 = getelementptr inbounds nuw %struct.Vec_Int_t_, ptr %15, i32 0, i32 0
  store i32 %14, ptr %16, align 8, !tbaa !57
  %17 = load ptr, ptr %3, align 8, !tbaa !17
  %18 = getelementptr inbounds nuw %struct.Vec_Int_t_, ptr %17, i32 0, i32 0
  %19 = load i32, ptr %18, align 8, !tbaa !57
  %20 = icmp ne i32 %19, 0
  br i1 %20, label %21, label %28

21:                                               ; preds = %11
  %22 = load ptr, ptr %3, align 8, !tbaa !17
  %23 = getelementptr inbounds nuw %struct.Vec_Int_t_, ptr %22, i32 0, i32 0
  %24 = load i32, ptr %23, align 8, !tbaa !57
  %25 = sext i32 %24 to i64
  %26 = mul i64 4, %25
  %27 = call noalias ptr @malloc(i64 noundef %26) #13
  br label %29

28:                                               ; preds = %11
  br label %29

29:                                               ; preds = %28, %21
  %30 = phi ptr [ %27, %21 ], [ null, %28 ]
  %31 = load ptr, ptr %3, align 8, !tbaa !17
  %32 = getelementptr inbounds nuw %struct.Vec_Int_t_, ptr %31, i32 0, i32 2
  store ptr %30, ptr %32, align 8, !tbaa !18
  %33 = load ptr, ptr %3, align 8, !tbaa !17
  call void @llvm.lifetime.end.p0(i64 8, ptr %3) #11
  ret ptr %33
}

; Function Attrs: inlinehint nounwind uwtable
define internal i32 @Gia_ManObjNum(ptr noundef %0) #1 {
  %2 = alloca ptr, align 8
  store ptr %0, ptr %2, align 8, !tbaa !20
  %3 = load ptr, ptr %2, align 8, !tbaa !20
  %4 = getelementptr inbounds nuw %struct.Gia_Man_t_, ptr %3, i32 0, i32 4
  %5 = load i32, ptr %4, align 8, !tbaa !31
  ret i32 %5
}

; Function Attrs: nounwind uwtable
define ptr @Gia_Sim2Create(ptr noundef %0, ptr noundef %1) #0 {
  %3 = alloca ptr, align 8
  %4 = alloca ptr, align 8
  %5 = alloca ptr, align 8
  %6 = alloca ptr, align 8
  %7 = alloca ptr, align 8
  %8 = alloca i32, align 4
  %9 = alloca i32, align 4
  store ptr %0, ptr %4, align 8, !tbaa !20
  store ptr %1, ptr %5, align 8, !tbaa !21
  call void @llvm.lifetime.start.p0(i64 8, ptr %6) #11
  call void @llvm.lifetime.start.p0(i64 8, ptr %7) #11
  call void @llvm.lifetime.start.p0(i64 4, ptr %8) #11
  %10 = call noalias ptr @calloc(i64 noundef 1, i64 noundef 48) #12
  store ptr %10, ptr %6, align 8, !tbaa !3
  %11 = load ptr, ptr %4, align 8, !tbaa !20
  %12 = load ptr, ptr %6, align 8, !tbaa !3
  %13 = getelementptr inbounds nuw %struct.Gia_Sim2_t_, ptr %12, i32 0, i32 0
  store ptr %11, ptr %13, align 8, !tbaa !22
  %14 = load ptr, ptr %5, align 8, !tbaa !21
  %15 = load ptr, ptr %6, align 8, !tbaa !3
  %16 = getelementptr inbounds nuw %struct.Gia_Sim2_t_, ptr %15, i32 0, i32 1
  store ptr %14, ptr %16, align 8, !tbaa !23
  %17 = load ptr, ptr %5, align 8, !tbaa !21
  %18 = getelementptr inbounds nuw %struct.Gia_ParSim_t_, ptr %17, i32 0, i32 0
  %19 = load i32, ptr %18, align 4, !tbaa !24
  %20 = load ptr, ptr %6, align 8, !tbaa !3
  %21 = getelementptr inbounds nuw %struct.Gia_Sim2_t_, ptr %20, i32 0, i32 2
  store i32 %19, ptr %21, align 8, !tbaa !26
  %22 = load ptr, ptr %6, align 8, !tbaa !3
  %23 = getelementptr inbounds nuw %struct.Gia_Sim2_t_, ptr %22, i32 0, i32 2
  %24 = load i32, ptr %23, align 8, !tbaa !26
  %25 = load ptr, ptr %6, align 8, !tbaa !3
  %26 = getelementptr inbounds nuw %struct.Gia_Sim2_t_, ptr %25, i32 0, i32 0
  %27 = load ptr, ptr %26, align 8, !tbaa !22
  %28 = call i32 @Gia_ManObjNum(ptr noundef %27)
  %29 = mul nsw i32 %24, %28
  %30 = sext i32 %29 to i64
  %31 = mul i64 4, %30
  %32 = call noalias ptr @malloc(i64 noundef %31) #13
  %33 = load ptr, ptr %6, align 8, !tbaa !3
  %34 = getelementptr inbounds nuw %struct.Gia_Sim2_t_, ptr %33, i32 0, i32 3
  store ptr %32, ptr %34, align 8, !tbaa !8
  %35 = load ptr, ptr %6, align 8, !tbaa !3
  %36 = getelementptr inbounds nuw %struct.Gia_Sim2_t_, ptr %35, i32 0, i32 3
  %37 = load ptr, ptr %36, align 8, !tbaa !8
  %38 = icmp ne ptr %37, null
  br i1 %38, label %53, label %39

39:                                               ; preds = %2
  %40 = load ptr, ptr %6, align 8, !tbaa !3
  %41 = getelementptr inbounds nuw %struct.Gia_Sim2_t_, ptr %40, i32 0, i32 2
  %42 = load i32, ptr %41, align 8, !tbaa !26
  %43 = sitofp i32 %42 to double
  %44 = fmul double 4.000000e+00, %43
  %45 = load ptr, ptr %6, align 8, !tbaa !3
  %46 = getelementptr inbounds nuw %struct.Gia_Sim2_t_, ptr %45, i32 0, i32 0
  %47 = load ptr, ptr %46, align 8, !tbaa !22
  %48 = call i32 @Gia_ManObjNum(ptr noundef %47)
  %49 = sitofp i32 %48 to double
  %50 = fmul double %44, %49
  %51 = fdiv double %50, 0x41D0000000000000
  call void (i32, ptr, ...) @Abc_Print(i32 noundef 1, ptr noundef @.str, double noundef %51)
  %52 = load ptr, ptr %6, align 8, !tbaa !3
  call void @Gia_Sim2Delete(ptr noundef %52)
  store ptr null, ptr %3, align 8
  store i32 1, ptr %9, align 4
  br label %108

53:                                               ; preds = %2
  %54 = call ptr @Vec_IntAlloc(i32 noundef 100)
  %55 = load ptr, ptr %6, align 8, !tbaa !3
  %56 = getelementptr inbounds nuw %struct.Gia_Sim2_t_, ptr %55, i32 0, i32 4
  store ptr %54, ptr %56, align 8, !tbaa !27
  %57 = call ptr @Vec_IntAlloc(i32 noundef 100)
  %58 = load ptr, ptr %6, align 8, !tbaa !3
  %59 = getelementptr inbounds nuw %struct.Gia_Sim2_t_, ptr %58, i32 0, i32 5
  store ptr %57, ptr %59, align 8, !tbaa !28
  %60 = load ptr, ptr %5, align 8, !tbaa !21
  %61 = getelementptr inbounds nuw %struct.Gia_ParSim_t_, ptr %60, i32 0, i32 5
  %62 = load i32, ptr %61, align 4, !tbaa !29
  %63 = icmp ne i32 %62, 0
  br i1 %63, label %64, label %84

64:                                               ; preds = %53
  %65 = load ptr, ptr %6, align 8, !tbaa !3
  %66 = getelementptr inbounds nuw %struct.Gia_Sim2_t_, ptr %65, i32 0, i32 0
  %67 = load ptr, ptr %66, align 8, !tbaa !22
  %68 = call i32 @Gia_ManObjNum(ptr noundef %67)
  %69 = sitofp i32 %68 to double
  %70 = fmul double 1.200000e+01, %69
  %71 = fdiv double %70, 0x4130000000000000
  %72 = load ptr, ptr %6, align 8, !tbaa !3
  %73 = getelementptr inbounds nuw %struct.Gia_Sim2_t_, ptr %72, i32 0, i32 2
  %74 = load i32, ptr %73, align 8, !tbaa !26
  %75 = sitofp i32 %74 to double
  %76 = fmul double 4.000000e+00, %75
  %77 = load ptr, ptr %6, align 8, !tbaa !3
  %78 = getelementptr inbounds nuw %struct.Gia_Sim2_t_, ptr %77, i32 0, i32 0
  %79 = load ptr, ptr %78, align 8, !tbaa !22
  %80 = call i32 @Gia_ManObjNum(ptr noundef %79)
  %81 = sitofp i32 %80 to double
  %82 = fmul double %76, %81
  %83 = fdiv double %82, 0x4130000000000000
  call void (i32, ptr, ...) @Abc_Print(i32 noundef 1, ptr noundef @.str.1, double noundef %71, double noundef %83)
  br label %84

84:                                               ; preds = %64, %53
  %85 = load ptr, ptr %4, align 8, !tbaa !20
  call void @Gia_ManSetPhase(ptr noundef %85)
  store i32 0, ptr %8, align 4, !tbaa !30
  br label %86

86:                                               ; preds = %103, %84
  %87 = load i32, ptr %8, align 4, !tbaa !30
  %88 = load ptr, ptr %4, align 8, !tbaa !20
  %89 = getelementptr inbounds nuw %struct.Gia_Man_t_, ptr %88, i32 0, i32 4
  %90 = load i32, ptr %89, align 8, !tbaa !31
  %91 = icmp slt i32 %87, %90
  br i1 %91, label %92, label %97

92:                                               ; preds = %86
  %93 = load ptr, ptr %4, align 8, !tbaa !20
  %94 = load i32, ptr %8, align 4, !tbaa !30
  %95 = call ptr @Gia_ManObj(ptr noundef %93, i32 noundef %94)
  store ptr %95, ptr %7, align 8, !tbaa !48
  %96 = icmp ne ptr %95, null
  br label %97

97:                                               ; preds = %92, %86
  %98 = phi i1 [ false, %86 ], [ %96, %92 ]
  br i1 %98, label %99, label %106

99:                                               ; preds = %97
  %100 = load i32, ptr %8, align 4, !tbaa !30
  %101 = load ptr, ptr %7, align 8, !tbaa !48
  %102 = getelementptr inbounds nuw %struct.Gia_Obj_t_, ptr %101, i32 0, i32 1
  store i32 %100, ptr %102, align 4, !tbaa !49
  br label %103

103:                                              ; preds = %99
  %104 = load i32, ptr %8, align 4, !tbaa !30
  %105 = add nsw i32 %104, 1
  store i32 %105, ptr %8, align 4, !tbaa !30
  br label %86, !llvm.loop !51

106:                                              ; preds = %97
  %107 = load ptr, ptr %6, align 8, !tbaa !3
  store ptr %107, ptr %3, align 8
  store i32 1, ptr %9, align 4
  br label %108

108:                                              ; preds = %106, %39
  call void @llvm.lifetime.end.p0(i64 4, ptr %8) #11
  call void @llvm.lifetime.end.p0(i64 8, ptr %7) #11
  call void @llvm.lifetime.end.p0(i64 8, ptr %6) #11
  %109 = load ptr, ptr %3, align 8
  ret ptr %109
}