; Function Attrs: nounwind uwtable
define noalias noundef ptr @Gia_Sim2Create(ptr noundef %0, ptr noundef %1) local_unnamed_addr #2 {
  %3 = tail call noalias dereferenceable_or_null(48) ptr @calloc(i64 noundef 1, i64 noundef 48) #17
  store ptr %0, ptr %3, align 8, !tbaa !16
  %4 = getelementptr inbounds nuw i8, ptr %3, i64 8
  store ptr %1, ptr %4, align 8, !tbaa !17
  %5 = load i32, ptr %1, align 4, !tbaa !18
  %6 = getelementptr inbounds nuw i8, ptr %3, i64 16
  store i32 %5, ptr %6, align 8, !tbaa !20
  %7 = getelementptr i8, ptr %0, i64 24
  %.val = load i32, ptr %7, align 8, !tbaa !21
  %8 = mul nsw i32 %.val, %5
  %9 = sext i32 %8 to i64
  %10 = shl nsw i64 %9, 2
  %11 = tail call noalias ptr @malloc(i64 noundef %10) #18
  %12 = getelementptr inbounds nuw i8, ptr %3, i64 24
  store ptr %11, ptr %12, align 8, !tbaa !12
  %.not = icmp eq ptr %11, null
  br i1 %.not, label %13, label %19

13:                                               ; preds = %2
  %14 = sitofp i32 %5 to double
  %15 = fmul double %14, 4.000000e+00
  %16 = sitofp i32 %.val to double
  %17 = fmul double %15, %16
  %18 = fmul double %17, 0x3E10000000000000
  tail call void (i32, ptr, ...) @Abc_Print(i32 poison, ptr noundef nonnull @.str, double noundef %18)
  tail call void @Gia_Sim2Delete(ptr noundef nonnull %3)
  br label %.critedge

19:                                               ; preds = %2
  %20 = tail call noalias dereferenceable_or_null(16) ptr @malloc(i64 noundef 16) #18
  %21 = getelementptr inbounds nuw i8, ptr %20, i64 4
  store i32 0, ptr %21, align 4, !tbaa !38
  store i32 100, ptr %20, align 8, !tbaa !39
  %22 = tail call noalias dereferenceable_or_null(400) ptr @malloc(i64 noundef 400) #18
  %23 = getelementptr inbounds nuw i8, ptr %20, i64 8
  store ptr %22, ptr %23, align 8, !tbaa !8
  %24 = getelementptr inbounds nuw i8, ptr %3, i64 32
  store ptr %20, ptr %24, align 8, !tbaa !40
  %25 = tail call noalias dereferenceable_or_null(16) ptr @malloc(i64 noundef 16) #18
  %26 = getelementptr inbounds nuw i8, ptr %25, i64 4
  store i32 0, ptr %26, align 4, !tbaa !38
  store i32 100, ptr %25, align 8, !tbaa !39
  %27 = tail call noalias dereferenceable_or_null(400) ptr @malloc(i64 noundef 400) #18
  %28 = getelementptr inbounds nuw i8, ptr %25, i64 8
  store ptr %27, ptr %28, align 8, !tbaa !8
  %29 = getelementptr inbounds nuw i8, ptr %3, i64 40
  store ptr %25, ptr %29, align 8, !tbaa !41
  %30 = getelementptr inbounds nuw i8, ptr %1, i64 20
  %31 = load i32, ptr %30, align 4, !tbaa !42
  %.not30 = icmp eq i32 %31, 0
  br i1 %.not30, label %40, label %32

32:                                               ; preds = %19
  %33 = sitofp i32 %.val to double
  %34 = fmul double %33, 1.200000e+01
  %35 = fmul double %34, 0x3EB0000000000000
  %36 = sitofp i32 %5 to double
  %37 = fmul double %36, 4.000000e+00
  %38 = fmul double %37, %33
  %39 = fmul double %38, 0x3EB0000000000000
  tail call void (i32, ptr, ...) @Abc_Print(i32 poison, ptr noundef nonnull @.str.1, double noundef %35, double noundef %39)
  br label %40

40:                                               ; preds = %32, %19
  tail call void @Gia_ManSetPhase(ptr noundef nonnull %0) #16
  %41 = load i32, ptr %7, align 8, !tbaa !21
  %42 = icmp sgt i32 %41, 0
  br i1 %42, label %.lr.ph, label %.critedge

.lr.ph:                                           ; preds = %40
  %43 = getelementptr i8, ptr %0, i64 32
  %.val35 = load ptr, ptr %43, align 8, !tbaa !43
  %.not31 = icmp eq ptr %.val35, null
  br i1 %.not31, label %.critedge, label %.lr.ph.split.preheader

.lr.ph.split.preheader:                           ; preds = %.lr.ph
  %wide.trip.count = zext nneg i32 %41 to i64
  br label %.lr.ph.split

.lr.ph.split:                                     ; preds = %.lr.ph.split.preheader, %.lr.ph.split
  %indvars.iv = phi i64 [ 0, %.lr.ph.split.preheader ], [ %indvars.iv.next, %.lr.ph.split ]
  %44 = getelementptr inbounds nuw %struct.Gia_Obj_t_, ptr %.val35, i64 %indvars.iv, i32 1
  %45 = trunc nuw nsw i64 %indvars.iv to i32
  store i32 %45, ptr %44, align 4, !tbaa !44
  %indvars.iv.next = add nuw nsw i64 %indvars.iv, 1
  %exitcond.not = icmp eq i64 %indvars.iv.next, %wide.trip.count
  br i1 %exitcond.not, label %.critedge, label %.lr.ph.split, !llvm.loop !46

.critedge:                                        ; preds = %.lr.ph.split, %40, %.lr.ph, %13
  %.028 = phi ptr [ null, %13 ], [ %3, %.lr.ph ], [ %3, %40 ], [ %3, %.lr.ph.split ]
  ret ptr %.028
}